; ModuleID = 'bench/linux/original/intel_dsb_buffer.ll'
source_filename = "bench/linux/original/intel_dsb_buffer.ll"
target datalayout = "e-m:e-p270:32:32-p271:32:32-p272:64:64-i64:64-i128:128-f80:128-n8:16:32:64-S128"
target triple = "x86_64-unknown-linux-gnu"

@.str = private unnamed_addr constant [48 x i8] c"drivers/gpu/drm/i915/display/intel_dsb_buffer.c\00", align 1

; Function Attrs: fn_ret_thunk_extern mustprogress nofree norecurse nosync nounwind null_pointer_is_valid willreturn memory(read, inaccessiblemem: none)
define dso_local i32 @intel_dsb_buffer_ggtt_offset(ptr nocapture noundef readonly %0) local_unnamed_addr #0 align 16 {
  %2 = getelementptr inbounds i8, ptr %0, i64 8
  %3 = load ptr, ptr %2, align 8
  %4 = getelementptr inbounds i8, ptr %3, i64 8
  %5 = load i64, ptr %4, align 8
  %6 = getelementptr inbounds i8, ptr %3, i64 248
  %7 = load i32, ptr %6, align 8
  %8 = trunc i64 %5 to i32
  %9 = add i32 %7, %8
  ret i32 %9
}

; Function Attrs: fn_ret_thunk_extern mustprogress nofree norecurse nosync nounwind null_pointer_is_valid willreturn memory(write, argmem: readwrite, inaccessiblemem: none)
define dso_local void @intel_dsb_buffer_write(ptr nocapture noundef readonly %0, i32 noundef %1, i32 noundef %2) local_unnamed_addr #1 align 16 {
  %4 = load ptr, ptr %0, align 8
  %5 = zext i32 %1 to i64
  %6 = getelementptr i32, ptr %4, i64 %5
  store i32 %2, ptr %6, align 4
  ret void
}

; Function Attrs: fn_ret_thunk_extern mustprogress nofree norecurse nosync nounwind null_pointer_is_valid willreturn memory(read, inaccessiblemem: none)
define dso_local i32 @intel_dsb_buffer_read(ptr nocapture noundef readonly %0, i32 noundef %1) local_unnamed_addr #0 align 16 {
  %3 = load ptr, ptr %0, align 8
  %4 = zext i32 %1 to i64
  %5 = getelementptr i32, ptr %3, i64 %4
  %6 = load i32, ptr %5, align 4
  ret i32 %6
}

; Function Attrs: fn_ret_thunk_extern nounwind null_pointer_is_valid
define dso_local void @intel_dsb_buffer_memset(ptr nocapture noundef readonly %0, i32 noundef %1, i32 noundef %2, i64 noundef %3) local_unnamed_addr #2 align 16 {
  %5 = zext i32 %1 to i64
  %6 = getelementptr inbounds i8, ptr %0, i64 16
  %7 = load i64, ptr %6, align 8
  %8 = sub i64 %7, %3
  %9 = lshr i64 %8, 2
  %10 = icmp ult i64 %9, %5
  br i1 %10, label %11, label %12, !prof !5

11:                                               ; preds = %4
  tail call void asm sideeffect "589: nop\0A\09.pushsection .discard.instr_begin\0A\09.long 589b - .\0A\09.popsection\0A\09", "i,~{dirflag},~{fpsr},~{flags}"(i32 589) #6, !srcloc !6
  tail call void asm sideeffect "1:\09.byte 0x0f, 0x0b\0A.pushsection __bug_table,\22aw\22\0A2:\09.long 1b - .\09# bug_entry::bug_addr\0A\09.long ${0:c} - .\09# bug_entry::file\0A\09.word ${1:c}\09# bug_entry::line\0A\09.word ${2:c}\09# bug_entry::flags\0A\09.org 2b+${3:c}\0A.popsection\0A998:\0A\09.pushsection .discard.reachable\0A\09.long 998b\0A\09.popsection\0A\09", "i,i,i,i,~{dirflag},~{fpsr},~{flags}"(ptr nonnull @.str, i32 30, i32 2305, i64 12) #6, !srcloc !7
  tail call void asm sideeffect "590: nop\0A\09.pushsection .discard.instr_end\0A\09.long 590b - .\0A\09.popsection\0A\09", "i,~{dirflag},~{fpsr},~{flags}"(i32 590) #6, !srcloc !8
  br label %12

12:                                               ; preds = %11, %4
  %13 = load ptr, ptr %0, align 8
  %14 = getelementptr i32, ptr %13, i64 %5
  %15 = trunc i32 %2 to i8
  tail call void @llvm.memset.p0.i64(ptr align 4 %14, i8 %15, i64 %3, i1 false)
  ret void
}

; Function Attrs: mustprogress nocallback nofree nosync nounwind willreturn memory(argmem: readwrite)
declare void @llvm.lifetime.start.p0(i64 immarg, ptr nocapture) #3

; Function Attrs: mustprogress nocallback nofree nosync nounwind willreturn memory(argmem: readwrite)
declare void @llvm.lifetime.end.p0(i64 immarg, ptr nocapture) #3

; Function Attrs: mustprogress nocallback nofree nounwind willreturn memory(argmem: write)
declare void @llvm.memset.p0.i64(ptr nocapture writeonly, i8, i64, i1 immarg) #4

; Function Attrs: fn_ret_thunk_extern nounwind null_pointer_is_valid
define dso_local noundef zeroext i1 @intel_dsb_buffer_create(ptr nocapture noundef readonly %0, ptr nocapture noundef writeonly %1, i64 noundef %2) local_unnamed_addr #2 align 16 {
  %4 = alloca ptr, align 8
  %5 = load ptr, ptr %0, align 8
  call void @llvm.lifetime.start.p0(i64 8, ptr nonnull %4) #6
  %6 = getelementptr inbounds i8, ptr %5, i64 7168
  %7 = load ptr, ptr %6, align 8
  %8 = getelementptr inbounds i8, ptr %7, i64 24
  %9 = load i32, ptr %8, align 8
  %10 = and i32 %9, 2
  %11 = icmp eq i32 %10, 0
  %12 = add i64 %2, 4095
  %13 = and i64 %12, -4096
  br i1 %11, label %17, label %14

14:                                               ; preds = %3
  %15 = tail call ptr @i915_gem_object_create_lmem(ptr noundef %5, i64 noundef %13, i32 noundef 1) #6
  %16 = icmp ugt ptr %15, inttoptr (i64 -4096 to ptr)
  br i1 %16, label %.thread, label %21

17:                                               ; preds = %3
  %18 = tail call ptr @i915_gem_object_create_internal(ptr noundef %5, i64 noundef %13) #6
  %19 = icmp ugt ptr %18, inttoptr (i64 -4096 to ptr)
  br i1 %19, label %.thread, label %20

20:                                               ; preds = %17
  tail call void @i915_gem_object_set_cache_coherency(ptr noundef %18, i32 noundef 0) #6
  br label %21

21:                                               ; preds = %20, %14
  %22 = phi ptr [ %15, %14 ], [ %18, %20 ]
  %23 = tail call ptr @i915_gem_object_ggtt_pin(ptr noundef %22, ptr noundef null, i64 noundef 0, i64 noundef 0, i64 noundef 0) #6
  store ptr %23, ptr %4, align 8
  %24 = icmp ugt ptr %23, inttoptr (i64 -4096 to ptr)
  br i1 %24, label %25, label %32

25:                                               ; preds = %21
  %26 = tail call i32 asm sideeffect ".pushsection .smp_locks,\22a\22\0A.balign 4\0A.long 671f - .\0A.popsection\0A671:\0A\09lock; xaddl $0, $1\0A", "=r,=*m,0,*m,~{memory},~{cc},~{dirflag},~{fpsr},~{flags}"(ptr elementtype(i32) %22, i32 -1, ptr elementtype(i32) %22) #6, !srcloc !9
  %27 = icmp eq i32 %26, 1
  br i1 %27, label %31, label %28

28:                                               ; preds = %25
  %29 = icmp sgt i32 %26, 0
  br i1 %29, label %.thread, label %30, !prof !10

30:                                               ; preds = %28
  tail call void @refcount_warn_saturate(ptr noundef %22, i32 noundef 3) #6
  br label %.thread

31:                                               ; preds = %25
  tail call void asm sideeffect "", "~{memory},~{dirflag},~{fpsr},~{flags}"() #6, !srcloc !11
  tail call void @drm_gem_object_free(ptr noundef %22) #6
  br label %.thread

32:                                               ; preds = %21
  %33 = getelementptr inbounds i8, ptr %23, i64 184
  %34 = load ptr, ptr %33, align 8
  %35 = tail call ptr @i915_gem_object_pin_map_unlocked(ptr noundef %34, i32 noundef 1) #6
  %36 = icmp ugt ptr %35, inttoptr (i64 -4096 to ptr)
  br i1 %36, label %37, label %38

37:                                               ; preds = %32
  call void @i915_vma_unpin_and_release(ptr noundef nonnull %4, i32 noundef 1) #6
  br label %.thread

38:                                               ; preds = %32
  %39 = getelementptr inbounds i8, ptr %1, i64 8
  store ptr %23, ptr %39, align 8
  store ptr %35, ptr %1, align 8
  %40 = getelementptr inbounds i8, ptr %1, i64 16
  store i64 %2, ptr %40, align 8
  br label %.thread

.thread:                                          ; preds = %28, %30, %38, %37, %31, %17, %14
  %41 = phi i1 [ false, %37 ], [ true, %38 ], [ false, %14 ], [ false, %17 ], [ false, %31 ], [ false, %30 ], [ false, %28 ]
  call void @llvm.lifetime.end.p0(i64 8, ptr nonnull %4) #6
  ret i1 %41
}

; Function Attrs: null_pointer_is_valid
declare dso_local ptr @i915_gem_object_create_lmem(ptr noundef, i64 noundef, i32 noundef) local_unnamed_addr #5

; Function Attrs: null_pointer_is_valid
declare dso_local ptr @i915_gem_object_create_internal(ptr noundef, i64 noundef) local_unnamed_addr #5

; Function Attrs: null_pointer_is_valid
declare dso_local void @i915_gem_object_set_cache_coherency(ptr noundef, i32 noundef) local_unnamed_addr #5

; Function Attrs: null_pointer_is_valid
declare dso_local ptr @i915_gem_object_ggtt_pin(ptr noundef, ptr noundef, i64 noundef, i64 noundef, i64 noundef) local_unnamed_addr #5

; Function Attrs: null_pointer_is_valid
declare dso_local ptr @i915_gem_object_pin_map_unlocked(ptr noundef, i32 noundef) local_unnamed_addr #5

; Function Attrs: null_pointer_is_valid
declare dso_local void @i915_vma_unpin_and_release(ptr noundef, i32 noundef) local_unnamed_addr #5

; Function Attrs: fn_ret_thunk_extern nounwind null_pointer_is_valid
define dso_local void @intel_dsb_buffer_cleanup(ptr noundef %0) local_unnamed_addr #2 align 16 {
  %2 = getelementptr inbounds i8, ptr %0, i64 8
  tail call void @i915_vma_unpin_and_release(ptr noundef %2, i32 noundef 1) #6
  ret void
}

; Function Attrs: fn_ret_thunk_extern nounwind null_pointer_is_valid
define dso_local void @intel_dsb_buffer_flush_map(ptr nocapture noundef readonly %0) local_unnamed_addr #2 align 16 {
  %2 = getelementptr inbounds i8, ptr %0, i64 8
  %3 = load ptr, ptr %2, align 8
  %4 = getelementptr inbounds i8, ptr %3, i64 184
  %5 = load ptr, ptr %4, align 8
  %6 = getelementptr inbounds i8, ptr %5, i64 216
  %7 = load i64, ptr %6, align 8
  tail call void @__i915_gem_object_flush_map(ptr noundef %5, i64 noundef 0, i64 noundef %7) #6
  ret void
}

; Function Attrs: null_pointer_is_valid
declare dso_local void @drm_gem_object_free(ptr noundef) local_unnamed_addr #5

; Function Attrs: null_pointer_is_valid
declare dso_local void @refcount_warn_saturate(ptr noundef, i32 noundef) local_unnamed_addr #5

; Function Attrs: null_pointer_is_valid
declare dso_local void @__i915_gem_object_flush_map(ptr noundef, i64 noundef, i64 noundef) local_unnamed_addr #5


!llvm.module.flags = !{!0, !1, !2, !3, !4}

!0 = !{i32 1, !"wchar_size", i32 2}
!1 = !{i32 8, !"cf-protection-branch", i32 1}
!2 = !{i32 4, !"function_return_thunk_extern", i32 1}
!3 = !{i32 4, !"indirect_branch_cs_prefix", i32 1}
!4 = !{i32 4, !"SkipRaxSetup", i32 1}
!5 = !{!"branch_weights", i32 1, i32 2000}
!6 = !{i64 2160325763, i64 2160325572, i64 2160325624, i64 2160325670, i64 2160325698}
!7 = !{i64 2160325837, i64 2160325866, i64 2160325912, i64 2160325970, i64 2160326024, i64 2160326078, i64 2160326133, i64 2160326164, i64 2160326472, i64 2160326478, i64 2160326525, i64 2160326548, i64 2160326574}
!8 = !{i64 2160327053, i64 2160326864, i64 2160326914, i64 2160326960, i64 2160326988}
!9 = !{i64 2148817679, i64 2148817718, i64 2148817739, i64 2148817776, i64 2148817799, i64 2148817808}
!10 = !{!"branch_weights", i32 2000, i32 1}
!11 = !{i64 2151295075}
